; Function Attrs: mustprogress nofree norecurse nosync nounwind willreturn memory(none) uwtable
define noundef zeroext i1 @_ZN5arrow9extension17JsonExtensionType22IsSupportedStorageTypeENS_4Type4typeE(i32 noundef %0) local_unnamed_addr #5 align 2 {
switch.edge:
  %1 = icmp ult i32 %0, 40
  %switch.cast = zext nneg i32 %0 to i40
  %switch.downshift = lshr i40 -532575936512, %switch.cast
  %switch.masked = trunc i40 %switch.downshift to i1
  %2 = select i1 %1, i1 %switch.masked, i1 false
  ret i1 %2
}